#include <math.h>
#include <stdio.h>
#include <stdlib.h>
#include <string.h>

void main()
{
	int a[300]={0},i=0,max=-2,k=0,cida=-1,j=0;
	char c[300]=" ";
	do
	{
	  scanf ("%d%c",&a[i],&c[i]);
	  i++;
	}while (c[i-1]!='\n');
	k=i;

    	if (k==1)
	     	printf("No\n");
else	{
        for (i=0;i<=k-1;i++)
				    if (a[i]>max)
				   { 
	                max=a[i];
				   }
		
		
	for (j=0;j<=k-1;j++) 
			     	if(a[j]==max)
					a[j]=0;
	for (i=0;i<=k-1;i++)
				    if (a[i]>cida)
				   { 
	                cida=a[i];
				   }
				

					
	  
	    
	      if(cida==0)
            printf("No\n");
		  else
			  printf("%d\n",cida);
		}
		
}